Certificate:
    Data:
        Version: 3 (0x2)
        Serial Number: 2 (0x2)
    Signature Algorithm: sha1WithRSAEncryption
        Issuer: C=US, ST=CA, L=Cyberspace, O=LEAP Encryption Access Project, OU=cyberspace, CN=tests-leap.se/name=tests-leap/emailAddress=tests@leap.se
        Validity
            Not Before: Sep  3 15:05:04 2013 GMT
            Not After : Sep  1 15:05:04 2023 GMT
        Subject: C=US, ST=CA, L=Cyberspace, O=LEAP Encryption Access Project, OU=cyberspace, CN=leaptestskey/name=tests-leap/emailAddress=tests@leap.se
        Subject Public Key Info:
            Public Key Algorithm: rsaEncryption
                Public-Key: (2048 bit)
                Modulus:
                    00:c4:4c:e5:c8:a5:47:4f:02:93:ee:6b:b4:2e:4e:
                    d8:5f:35:17:43:e2:12:73:fc:53:5c:92:b1:ac:08:
                    c1:98:56:7c:f4:f4:44:15:a8:e9:e1:a6:2d:ca:a5:
                    e0:1d:89:e4:a4:27:69:de:7d:06:ca:25:1b:95:3d:
                    2d:13:36:ce:a2:58:9b:1b:dc:cd:46:b6:d5:f5:c3:
                    31:86:9c:22:07:c4:81:f4:89:a2:e0:5c:05:fe:e8:
                    bb:7f:80:20:ba:2d:c6:fd:4c:af:3c:b9:ab:c1:56:
                    20:c3:1c:6a:3d:dc:6f:f4:4d:5c:cf:5f:7b:0c:3e:
                    62:14:ef:a2:6b:6c:02:c3:4d:ea:eb:3c:03:51:ad:
                    17:27:27:db:03:7f:8e:6e:eb:ef:0b:39:80:e9:02:
                    48:53:d6:02:cb:10:e7:88:0a:8c:7a:fa:50:02:13:
                    2d:da:c6:9f:65:f6:09:01:3b:f7:48:59:58:f2:ad:
                    8f:7c:d2:b3:dd:2e:fd:ff:fe:62:99:83:75:4c:86:
                    01:41:82:01:48:51:37:0d:06:c0:b2:d9:a4:2d:6a:
                    ee:de:2f:49:a5:07:6d:e6:11:23:b1:bd:0c:ff:5f:
                    98:fb:63:1c:7b:a0:24:b1:33:53:de:33:c5:73:4d:
                    ce:0f:a9:18:0d:f5:9a:29:46:ee:9a:c2:22:3d:01:
                    db:63
                Exponent: 65537 (0x10001)
        X509v3 extensions:
            X509v3 Basic Constraints: 
                CA:FALSE
            Netscape Comment: 
                Easy-RSA Generated Certificate
            X509v3 Subject Key Identifier: 
                65:B4:E8:FD:61:E2:B1:C6:87:2F:E2:CA:FB:9C:73:43:D0:BC:6D:24
            X509v3 Authority Key Identifier: 
                keyid:36:19:70:96:A9:5C:FE:A3:82:0F:79:95:31:52:2B:4A:41:BD:81:CB
                DirName:/C=US/ST=CA/L=Cyberspace/O=LEAP Encryption Access Project/OU=cyberspace/CN=tests-leap.se/name=tests-leap/emailAddress=tests@leap.se
                serial:8B:BF:41:63:1E:10:6A:EC

            X509v3 Extended Key Usage: 
                TLS Web Client Authentication
            X509v3 Key Usage: 
                Digital Signature
    Signature Algorithm: sha1WithRSAEncryption
         6c:3e:59:41:53:20:86:8c:c1:2a:e9:6a:17:1c:ed:96:e9:76:
         8d:3f:68:8c:cd:17:a6:ac:ab:c5:07:dc:93:40:ed:77:1a:72:
         a2:45:06:49:0e:1c:18:55:9b:9f:d7:6f:b5:4a:40:69:06:f0:
         b3:d6:e2:30:de:db:73:a5:12:9a:43:a8:a7:fb:6e:f4:22:a9:
         10:e6:08:2d:d1:86:95:22:e7:53:5a:38:c5:d9:2d:f5:6e:62:
         71:1b:49:13:dd:e8:ac:c1:06:be:4a:f5:77:81:45:37:18:1c:
         fb:77:61:a8:0b:f9:f5:7e:f4:30:86:f0:32:34:93:70:f9:e7:
         ba:b2:af:45:c0:05:46:64:41:fd:93:ab:f0:39:2d:17:bb:15:
         19:ff:9c:8b:0f:65:db:b1:aa:7c:cd:9d:5d:c4:da:12:57:33:
         f9:c9:60:ca:09:23:d0:60:d3:f0:5b:fa:d7:ba:e7:1b:c6:df:
         d6:cf:a1:06:1a:1e:e5:2e:00:ea:b5:aa:ab:b2:56:61:c1:bb:
         0e:7e:c2:ff:c7:a9:43:a8:71:de:7e:1c:cb:3b:a6:21:2b:7f:
         34:f5:ff:0b:0d:79:04:0a:8c:88:12:7b:c0:02:a0:f3:8f:0e:
         9f:0e:3d:71:24:7b:ed:59:a7:5e:94:6d:9c:5f:73:95:cd:59:
         4a:88:34:f7
-----BEGIN CERTIFICATE-----
MIIFXTCCBEWgAwIBAgIBAjANBgkqhkiG9w0BAQUFADCBuDELMAkGA1UEBhMCVVMx
CzAJBgNVBAgTAkNBMRMwEQYDVQQHEwpDeWJlcnNwYWNlMScwJQYDVQQKEx5MRUFQ
IEVuY3J5cHRpb24gQWNjZXNzIFByb2plY3QxEzARBgNVBAsTCmN5YmVyc3BhY2Ux
FjAUBgNVBAMTDXRlc3RzLWxlYXAuc2UxEzARBgNVBCkTCnRlc3RzLWxlYXAxHDAa
BgkqhkiG9w0BCQEWDXRlc3RzQGxlYXAuc2UwHhcNMTMwOTAzMTUwNTA0WhcNMjMw
OTAxMTUwNTA0WjCBtzELMAkGA1UEBhMCVVMxCzAJBgNVBAgTAkNBMRMwEQYDVQQH
EwpDeWJlcnNwYWNlMScwJQYDVQQKEx5MRUFQIEVuY3J5cHRpb24gQWNjZXNzIFBy
b2plY3QxEzARBgNVBAsTCmN5YmVyc3BhY2UxFTATBgNVBAMTDGxlYXB0ZXN0c2tl
eTETMBEGA1UEKRMKdGVzdHMtbGVhcDEcMBoGCSqGSIb3DQEJARYNdGVzdHNAbGVh
cC5zZTCCASIwDQYJKoZIhvcNAQEBBQADggEPADCCAQoCggEBAMRM5cilR08Ck+5r
tC5O2F81F0PiEnP8U1ySsawIwZhWfPT0RBWo6eGmLcql4B2J5KQnad59BsolG5U9
LRM2zqJYmxvczUa21fXDMYacIgfEgfSJouBcBf7ou3+AILotxv1Mrzy5q8FWIMMc
aj3cb/RNXM9feww+YhTvomtsAsNN6us8A1GtFycn2wN/jm7r7ws5gOkCSFPWAssQ
54gKjHr6UAITLdrGn2X2CQE790hZWPKtj3zSs90u/f/+YpmDdUyGAUGCAUhRNw0G
wLLZpC1q7t4vSaUHbeYRI7G9DP9fmPtjHHugJLEzU94zxXNNzg+pGA31milG7prC
Ij0B22MCAwEAAaOCAW8wggFrMAkGA1UdEwQCMAAwLQYJYIZIAYb4QgENBCAWHkVh
c3ktUlNBIEdlbmVyYXRlZCBDZXJ0aWZpY2F0ZTAdBgNVHQ4EFgQUZbTo/WHiscaH
L+LK+5xzQ9C8bSQwge0GA1UdIwSB5TCB4oAUNhlwlqlc/qOCD3mVMVIrSkG9gcuh
gb6kgbswgbgxCzAJBgNVBAYTAlVTMQswCQYDVQQIEwJDQTETMBEGA1UEBxMKQ3li
ZXJzcGFjZTEnMCUGA1UEChMeTEVBUCBFbmNyeXB0aW9uIEFjY2VzcyBQcm9qZWN0
MRMwEQYDVQQLEwpjeWJlcnNwYWNlMRYwFAYDVQQDEw10ZXN0cy1sZWFwLnNlMRMw
EQYDVQQpEwp0ZXN0cy1sZWFwMRwwGgYJKoZIhvcNAQkBFg10ZXN0c0BsZWFwLnNl
ggkAi79BYx4QauwwEwYDVR0lBAwwCgYIKwYBBQUHAwIwCwYDVR0PBAQDAgeAMA0G
CSqGSIb3DQEBBQUAA4IBAQBsPllBUyCGjMEq6WoXHO2W6XaNP2iMzRemrKvFB9yT
QO13GnKiRQZJDhwYVZuf12+1SkBpBvCz1uIw3ttzpRKaQ6in+270IqkQ5ggt0YaV
IudTWjjF2S31bmJxG0kT3eiswQa+SvV3gUU3GBz7d2GoC/n1fvQwhvAyNJNw+ee6
sq9FwAVGZEH9k6vwOS0XuxUZ/5yLD2Xbsap8zZ1dxNoSVzP5yWDKCSPQYNPwW/rX
uucbxt/Wz6EGGh7lLgDqtaqrslZhwbsOfsL/x6lDqHHefhzLO6YhK3809f8LDXkE
CoyIEnvAAqDzjw6fDj1xJHvtWadelG2cX3OVzVlKiDT3
-----END CERTIFICATE-----
